target datalayout = "e-m:e-p270:32:32-p271:32:32-p272:64:64-i64:64-i128:128-f80:128-n8:16:32:64-S128"
target triple = "x86_64-pc-linux-gnu"

%struct.ZSTD_customMem = type { ptr, ptr, ptr }
%struct.ZSTD_frameParameters = type { i32, i32, i32 }
%struct.ZSTD_compressionParameters = type { i32, i32, i32, i32, i32, i32, i32 }
%struct.ZSTD_CCtx_s = type { i32, i32, i32, %struct.ZSTD_CCtx_params_s, %struct.ZSTD_CCtx_params_s, %struct.ZSTD_CCtx_params_s, i32, i64, %struct.ZSTD_cwksp, i64, i64, i64, i64, %struct.XXH64_state_s, %struct.ZSTD_customMem, ptr, i64, %struct.SeqCollector, i32, i32, %struct.SeqStore_t, %struct.ldmState_t, ptr, i64, %struct.RawSeqStore_t, %struct.ZSTD_blockState_t, ptr, i64, i32, ptr, i64, i64, i64, i64, ptr, i64, i64, i64, i32, i32, %struct.ZSTD_inBuffer_s, i64, i64, %struct.ZSTD_localDict, ptr, %struct.ZSTD_prefixDict_s, ptr, i64, %struct.ZSTD_blockSplitCtx, ptr, i64 }
%struct.ZSTD_CCtx_params_s = type { i32, %struct.ZSTD_compressionParameters, %struct.ZSTD_frameParameters, i32, i32, i64, i32, i32, i32, i32, i64, i32, i32, %struct.ldmParams_t, i32, i32, i32, i32, i32, i32, i32, i64, i32, i32, %struct.ZSTD_customMem, i32, i32, ptr, ptr, i32 }
%struct.ldmParams_t = type { i32, i32, i32, i32, i32, i32 }
%struct.ZSTD_cwksp = type { ptr, ptr, ptr, ptr, ptr, ptr, ptr, i8, i32, i32, i32 }
%struct.XXH64_state_s = type { i64, [4 x i64], [4 x i64], i32, i32, i64 }
%struct.SeqCollector = type { i32, ptr, i64, i64 }
%struct.SeqStore_t = type { ptr, ptr, ptr, ptr, ptr, ptr, ptr, i64, i64, i32, i32 }
%struct.ldmState_t = type { %struct.ZSTD_window_t, ptr, i32, ptr, [64 x i64], [64 x %struct.ldmMatchCandidate_t] }
%struct.ZSTD_window_t = type { ptr, ptr, ptr, i32, i32, i32 }
%struct.ldmMatchCandidate_t = type { ptr, i32, i32, ptr }
%struct.RawSeqStore_t = type { ptr, i64, i64, i64, i64 }
%struct.ZSTD_blockState_t = type { ptr, ptr, %struct.ZSTD_MatchState_t }
%struct.ZSTD_MatchState_t = type { %struct.ZSTD_window_t, i32, i32, i32, i32, ptr, [8 x i32], i64, i32, ptr, ptr, ptr, i32, i32, %struct.optState_t, ptr, %struct.ZSTD_compressionParameters, ptr, i32, i32 }
%struct.optState_t = type { ptr, ptr, ptr, ptr, ptr, ptr, i32, i32, i32, i32, i32, i32, i32, i32, i32, ptr, i32 }
%struct.ZSTD_inBuffer_s = type { ptr, i64, i64 }
%struct.ZSTD_localDict = type { ptr, ptr, i64, i32, ptr }
%struct.ZSTD_prefixDict_s = type { ptr, i64, i32 }
%struct.ZSTD_blockSplitCtx = type { %struct.SeqStore_t, %struct.SeqStore_t, %struct.SeqStore_t, %struct.SeqStore_t, %struct.SeqStore_t, [196 x i32], %struct.ZSTD_entropyCTablesMetadata_t }
%struct.ZSTD_entropyCTablesMetadata_t = type { %struct.ZSTD_hufCTablesMetadata_t, %struct.ZSTD_fseCTablesMetadata_t }
%struct.ZSTD_hufCTablesMetadata_t = type { i32, [128 x i8], i64 }
%struct.ZSTD_fseCTablesMetadata_t = type { i32, i32, i32, [133 x i8], i64, i64 }
%struct.ZSTD_compressedBlockState_t = type { %struct.ZSTD_entropyCTables_t, [3 x i32] }
%struct.ZSTD_entropyCTables_t = type { %struct.ZSTD_hufCTables_t, %struct.ZSTD_fseCTables_t }
%struct.ZSTD_hufCTables_t = type { [257 x i64], i32 }
%struct.ZSTD_fseCTables_t = type { [193 x i32], [363 x i32], [329 x i32], i32, i32, i32 }
%struct.ZSTD_CDict_s = type { ptr, i64, i32, ptr, %struct.ZSTD_cwksp, %struct.ZSTD_MatchState_t, %struct.ZSTD_compressedBlockState_t, %struct.ZSTD_customMem, i32, i32, i32 }

; Function Attrs: nounwind uwtable
define i64 @ZSTD_sizeof_CDict(ptr noundef %0) #0 {
  %2 = alloca i64, align 8
  %3 = alloca ptr, align 8
  store ptr %0, ptr %3, align 8, !tbaa !148
  %4 = load ptr, ptr %3, align 8, !tbaa !148
  %5 = icmp eq ptr %4, null
  br i1 %5, label %6, label %7

6:                                                ; preds = %1
  store i64 0, ptr %2, align 8
  br label %21

7:                                                ; preds = %1
  br label %8

8:                                                ; preds = %7
  br label %9

9:                                                ; preds = %8
  %10 = load ptr, ptr %3, align 8, !tbaa !148
  %11 = getelementptr inbounds nuw %struct.ZSTD_CDict_s, ptr %10, i32 0, i32 4
  %12 = getelementptr inbounds nuw %struct.ZSTD_cwksp, ptr %11, i32 0, i32 0
  %13 = load ptr, ptr %12, align 8, !tbaa !278
  %14 = load ptr, ptr %3, align 8, !tbaa !148
  %15 = icmp eq ptr %13, %14
  %16 = select i1 %15, i64 0, i64 6080
  %17 = load ptr, ptr %3, align 8, !tbaa !148
  %18 = getelementptr inbounds nuw %struct.ZSTD_CDict_s, ptr %17, i32 0, i32 4
  %19 = call i64 @ZSTD_cwksp_sizeof(ptr noundef %18)
  %20 = add i64 %16, %19
  store i64 %20, ptr %2, align 8
  br label %21

21:                                               ; preds = %9, %6
  %22 = load i64, ptr %2, align 8
  ret i64 %22
}

; Function Attrs: nounwind uwtable
define internal i64 @ZSTD_sizeof_mtctx(ptr noundef %0) #0 {
  %2 = alloca ptr, align 8
  store ptr %0, ptr %2, align 8, !tbaa !11
  %3 = load ptr, ptr %2, align 8, !tbaa !11
  %4 = getelementptr inbounds nuw %struct.ZSTD_CCtx_s, ptr %3, i32 0, i32 46
  %5 = load ptr, ptr %4, align 8, !tbaa !74
  %6 = call i64 @ZSTDMT_sizeof_CCtx(ptr noundef %5)
  ret i64 %6
}

; Function Attrs: nounwind uwtable
define internal i64 @ZSTD_sizeof_localDict(ptr noundef byval(%struct.ZSTD_localDict) align 8 %0) #0 {
  %2 = alloca i64, align 8
  %3 = alloca i64, align 8
  call void @llvm.lifetime.start.p0(i64 8, ptr %2) #15
  %4 = getelementptr inbounds nuw %struct.ZSTD_localDict, ptr %0, i32 0, i32 0
  %5 = load ptr, ptr %4, align 8, !tbaa !76
  %6 = icmp ne ptr %5, null
  br i1 %6, label %7, label %10

7:                                                ; preds = %1
  %8 = getelementptr inbounds nuw %struct.ZSTD_localDict, ptr %0, i32 0, i32 2
  %9 = load i64, ptr %8, align 8, !tbaa !77
  br label %11

10:                                               ; preds = %1
  br label %11

11:                                               ; preds = %10, %7
  %12 = phi i64 [ %9, %7 ], [ 0, %10 ]
  store i64 %12, ptr %2, align 8, !tbaa !3
  call void @llvm.lifetime.start.p0(i64 8, ptr %3) #15
  %13 = getelementptr inbounds nuw %struct.ZSTD_localDict, ptr %0, i32 0, i32 4
  %14 = load ptr, ptr %13, align 8, !tbaa !78
  %15 = call i64 @ZSTD_sizeof_CDict(ptr noundef %14)
  store i64 %15, ptr %3, align 8, !tbaa !3
  %16 = load i64, ptr %2, align 8, !tbaa !3
  %17 = load i64, ptr %3, align 8, !tbaa !3
  %18 = add i64 %16, %17
  call void @llvm.lifetime.end.p0(i64 8, ptr %3) #15
  call void @llvm.lifetime.end.p0(i64 8, ptr %2) #15
  ret i64 %18
}

; Function Attrs: inlinehint nounwind uwtable
define internal i64 @ZSTD_cwksp_sizeof(ptr noundef %0) #2 {
  %2 = alloca ptr, align 8
  store ptr %0, ptr %2, align 8, !tbaa !15
  %3 = load ptr, ptr %2, align 8, !tbaa !15
  %4 = getelementptr inbounds nuw %struct.ZSTD_cwksp, ptr %3, i32 0, i32 1
  %5 = load ptr, ptr %4, align 8, !tbaa !55
  %6 = load ptr, ptr %2, align 8, !tbaa !15
  %7 = getelementptr inbounds nuw %struct.ZSTD_cwksp, ptr %6, i32 0, i32 0
  %8 = load ptr, ptr %7, align 8, !tbaa !54
  %9 = ptrtoint ptr %5 to i64
  %10 = ptrtoint ptr %8 to i64
  %11 = sub i64 %9, %10
  ret i64 %11
}

; Function Attrs: nounwind uwtable
define i64 @ZSTD_sizeof_CCtx(ptr noundef %0) #0 {
  %2 = alloca i64, align 8
  %3 = alloca ptr, align 8
  store ptr %0, ptr %3, align 8, !tbaa !11
  %4 = load ptr, ptr %3, align 8, !tbaa !11
  %5 = icmp eq ptr %4, null
  br i1 %5, label %6, label %7

6:                                                ; preds = %1
  store i64 0, ptr %2, align 8
  br label %26

7:                                                ; preds = %1
  %8 = load ptr, ptr %3, align 8, !tbaa !11
  %9 = getelementptr inbounds nuw %struct.ZSTD_CCtx_s, ptr %8, i32 0, i32 8
  %10 = getelementptr inbounds nuw %struct.ZSTD_cwksp, ptr %9, i32 0, i32 0
  %11 = load ptr, ptr %10, align 8, !tbaa !75
  %12 = load ptr, ptr %3, align 8, !tbaa !11
  %13 = icmp eq ptr %11, %12
  %14 = select i1 %13, i64 0, i64 5288
  %15 = load ptr, ptr %3, align 8, !tbaa !11
  %16 = getelementptr inbounds nuw %struct.ZSTD_CCtx_s, ptr %15, i32 0, i32 8
  %17 = call i64 @ZSTD_cwksp_sizeof(ptr noundef %16)
  %18 = add i64 %14, %17
  %19 = load ptr, ptr %3, align 8, !tbaa !11
  %20 = getelementptr inbounds nuw %struct.ZSTD_CCtx_s, ptr %19, i32 0, i32 43
  %21 = call i64 @ZSTD_sizeof_localDict(ptr noundef byval(%struct.ZSTD_localDict) align 8 %20)
  %22 = add i64 %18, %21
  %23 = load ptr, ptr %3, align 8, !tbaa !11
  %24 = call i64 @ZSTD_sizeof_mtctx(ptr noundef %23)
  %25 = add i64 %22, %24
  store i64 %25, ptr %2, align 8
  br label %26

26:                                               ; preds = %7, %6
  %27 = load i64, ptr %2, align 8
  ret i64 %27
}

; Function Attrs: nounwind uwtable
define i64 @ZSTD_sizeof_CStream(ptr noundef %0) #0 {
  %2 = alloca ptr, align 8
  store ptr %0, ptr %2, align 8, !tbaa !11
  %3 = load ptr, ptr %2, align 8, !tbaa !11
  %4 = call i64 @ZSTD_sizeof_CCtx(ptr noundef %3)
  ret i64 %4
}