; Function Attrs: nounwind uwtable
define i64 @ZSTD_sizeof_CStream(ptr noundef readonly captures(address) %0) local_unnamed_addr #2 {
  %2 = icmp eq ptr %0, null
  br i1 %2, label %ZSTD_sizeof_CCtx.exit, label %3

3:                                                ; preds = %1
  %4 = getelementptr inbounds nuw i8, ptr %0, i64 704
  %5 = load ptr, ptr %4, align 8, !tbaa !61
  %6 = icmp eq ptr %5, %0
  %7 = select i1 %6, i64 0, i64 5288
  %8 = getelementptr i8, ptr %0, i64 712
  %.val7.i = load ptr, ptr %8, align 8, !tbaa !59
  %9 = ptrtoint ptr %.val7.i to i64
  %10 = ptrtoint ptr %5 to i64
  %11 = getelementptr inbounds nuw i8, ptr %0, i64 3688
  %.sroa.0.0.copyload.i = load ptr, ptr %11, align 1
  %.sroa.49.0..sroa_idx.i = getelementptr inbounds nuw i8, ptr %0, i64 3704
  %.sroa.49.0.copyload.i = load i64, ptr %.sroa.49.0..sroa_idx.i, align 1
  %.sroa.510.0..sroa_idx.i = getelementptr inbounds nuw i8, ptr %0, i64 3720
  %.sroa.510.0.copyload.i = load ptr, ptr %.sroa.510.0..sroa_idx.i, align 1
  %12 = icmp eq ptr %.sroa.510.0.copyload.i, null
  br i1 %12, label %ZSTD_sizeof_localDict.exit.i, label %13

13:                                               ; preds = %3
  %14 = getelementptr inbounds nuw i8, ptr %.sroa.510.0.copyload.i, i64 32
  %15 = load ptr, ptr %14, align 8, !tbaa !62
  %16 = icmp eq ptr %15, %.sroa.510.0.copyload.i
  %17 = select i1 %16, i64 0, i64 6080
  %18 = getelementptr i8, ptr %.sroa.510.0.copyload.i, i64 40
  %.val5.i.i.i = load ptr, ptr %18, align 8, !tbaa !59
  %19 = ptrtoint ptr %.val5.i.i.i to i64
  %20 = ptrtoint ptr %15 to i64
  %21 = sub i64 %19, %20
  %22 = add i64 %21, %17
  br label %ZSTD_sizeof_localDict.exit.i

ZSTD_sizeof_localDict.exit.i:                     ; preds = %13, %3
  %.0.i.i.i = phi i64 [ %22, %13 ], [ 0, %3 ]
  %.not.i.i = icmp eq ptr %.sroa.0.0.copyload.i, null
  %23 = select i1 %.not.i.i, i64 0, i64 %.sroa.49.0.copyload.i
  %24 = getelementptr i8, ptr %0, i64 3760
  %.val8.i = load ptr, ptr %24, align 8, !tbaa !60
  %25 = tail call i64 @ZSTDMT_sizeof_CCtx(ptr noundef %.val8.i) #28
  %26 = sub i64 %9, %10
  %27 = add i64 %26, %7
  %28 = add i64 %27, %23
  %29 = add i64 %28, %.0.i.i.i
  %30 = add i64 %29, %25
  br label %ZSTD_sizeof_CCtx.exit

ZSTD_sizeof_CCtx.exit:                            ; preds = %1, %ZSTD_sizeof_localDict.exit.i
  %.0.i = phi i64 [ %30, %ZSTD_sizeof_localDict.exit.i ], [ 0, %1 ]
  ret i64 %.0.i
}